target datalayout = "e-m:e-p270:32:32-p271:32:32-p272:64:64-i64:64-i128:128-f80:128-n8:16:32:64-S128"
target triple = "x86_64-pc-linux-gnu"

%"class.zmq::shared_message_memory_allocator" = type { ptr, i64, i64, ptr, i64 }

; Function Attrs: mustprogress nounwind uwtable
define void @_ZN3zmq31shared_message_memory_allocatorC2Em(ptr noundef nonnull align 8 dereferenceable(40) %0, i64 noundef %1) unnamed_addr #0 align 2 {
  %3 = alloca ptr, align 8
  %4 = alloca i64, align 8
  store ptr %0, ptr %3, align 8, !tbaa !3
  store i64 %1, ptr %4, align 8, !tbaa !8
  %5 = load ptr, ptr %3, align 8
  %6 = getelementptr inbounds nuw %"class.zmq::shared_message_memory_allocator", ptr %5, i32 0, i32 0
  store ptr null, ptr %6, align 8, !tbaa !10
  %7 = getelementptr inbounds nuw %"class.zmq::shared_message_memory_allocator", ptr %5, i32 0, i32 1
  store i64 0, ptr %7, align 8, !tbaa !14
  %8 = getelementptr inbounds nuw %"class.zmq::shared_message_memory_allocator", ptr %5, i32 0, i32 2
  %9 = load i64, ptr %4, align 8, !tbaa !8
  store i64 %9, ptr %8, align 8, !tbaa !15
  %10 = getelementptr inbounds nuw %"class.zmq::shared_message_memory_allocator", ptr %5, i32 0, i32 3
  store ptr null, ptr %10, align 8, !tbaa !16
  %11 = getelementptr inbounds nuw %"class.zmq::shared_message_memory_allocator", ptr %5, i32 0, i32 4
  %12 = getelementptr inbounds nuw %"class.zmq::shared_message_memory_allocator", ptr %5, i32 0, i32 2
  %13 = load i64, ptr %12, align 8, !tbaa !15
  %14 = add i64 %13, 33
  %15 = sub i64 %14, 1
  %16 = udiv i64 %15, 33
  store i64 %16, ptr %11, align 8, !tbaa !17
  ret void
}